	.cpu generic+fp+simd
	.file	"hisi_mmc_bkops.c"
	.text
.Ltext0:
	.cfi_sections	.debug_frame
	.align	2
	.type	mmc_bkops_status_query, %function
mmc_bkops_status_query:
.LFB2786:
	.file 1 "/mnt/disk/jenkins/ci/workspace/chipset_patch/opensource/component_code/vendor/huawei/extra/build/build_script/kirin_kernel_release/kernel/drivers/mmc/core/hisi_mmc_bkops.c"
	.loc 1 15 0
	.cfi_startproc
.LVL0:
	stp	x29, x30, [sp, -48]!
	.cfi_def_cfa_offset 48
	.cfi_offset 29, -48
	.cfi_offset 30, -40
	add	x29, sp, 0
	.cfi_def_cfa_register 29
	stp	x19, x20, [sp,16]
	str	x21, [sp,32]
	.cfi_offset 19, -32
	.cfi_offset 20, -24
	.cfi_offset 21, -16
	.loc 1 15 0
	mov	x19, x0
	mov	x20, x1
	.loc 1 18 0
	ldr	x21, [x0,1720]
.LVL1:
	.loc 1 23 0
	cbz	x0, .L7
.L2:
	.loc 1 26 0
	mov	x0, x19
	bl	mmc_get_card
.LVL2:
	.loc 1 27 0
	ldr	x0, [x19]
	ldr	x0, [x0,1240]
	ldr	w0, [x0,828]
	tbz	x0, 6, .L8
.L3:
	.loc 1 58 0
	mov	x0, x19
	bl	mmc_put_card
.LVL3:
	.loc 1 62 0
	ldr	x21, [sp,32]
	.cfi_remember_state
	.cfi_restore 21
.LVL4:
	mov	w0, 0
	ldp	x19, x20, [sp,16]
	.cfi_restore 20
	.cfi_restore 19
.LVL5:
	ldp	x29, x30, [sp], 48
	.cfi_restore 30
	.cfi_restore 29
	.cfi_def_cfa 31, 0
	ret
.LVL6:
.L8:
	.cfi_restore_state
	.loc 1 31 0
	mov	x0, x19
	bl	mmc_read_bkops_status
.LVL7:
	mov	w2, w0
.LVL8:
	.loc 1 43 0
	cbnz	w0, .L9
	.loc 1 55 0
	ldrb	w0, [x19,1187]
	str	w0, [x20]
	.loc 1 58 0
	mov	x0, x19
	bl	mmc_put_card
.LVL9:
	.loc 1 62 0
	ldr	x21, [sp,32]
	.cfi_remember_state
	.cfi_restore 21
.LVL10:
	mov	w0, 0
	ldp	x19, x20, [sp,16]
	.cfi_restore 19
	.cfi_restore 20
.LVL11:
	ldp	x29, x30, [sp], 48
	.cfi_restore 29
	.cfi_restore 30
	.cfi_def_cfa 31, 0
	ret
.LVL12:
.L7:
	.cfi_restore_state
	.loc 1 24 0
	mov	w0, 35
.LVL13:
	mov	x1, 0
	movk	w0, 0x8000, lsl 16
	mov	x2, 0
	bl	rdr_syserr_process_for_ap
.LVL14:
	b	.L2
.LVL15:
.L9:
	.loc 1 44 0
	ldr	x0, [x19]
.LVL16:
.LBB18:
.LBB19:
	.file 2 "/mnt/disk/jenkins/ci/workspace/chipset_patch/opensource/component_code/vendor/huawei/extra/build/build_script/kirin_kernel_release/kernel/include/linux/device.h"
	.loc 2 873 0
	ldr	x1, [x0,88]
	cbz	x1, .L10
.L5:
.LBE19:
.LBE18:
	.loc 1 44 0 discriminator 1
	adrp	x0, .LC0
	add	x0, x0, :lo12:.LC0
	bl	printk
.LVL17:
	.loc 1 49 0
	ldr	w0, [x21,420]
	add	w0, w0, 1
	str	w0, [x21,420]
	.loc 1 50 0
	str	wzr, [x20]
	.loc 1 51 0
	b	.L3
.LVL18:
.L10:
	ldr	x1, [x0,24]
	b	.L5
	.cfi_endproc
.LFE2786:
	.size	mmc_bkops_status_query, .-mmc_bkops_status_query
	.align	2
	.global	mmc_start_bkops
	.type	mmc_start_bkops, %function
mmc_start_bkops:
.LFB2787:
	.loc 1 65 0
	.cfi_startproc
.LVL19:
	stp	x29, x30, [sp, -48]!
	.cfi_def_cfa_offset 48
	.cfi_offset 29, -48
	.cfi_offset 30, -40
	add	x29, sp, 0
	.cfi_def_cfa_register 29
	stp	x19, x20, [sp,16]
	str	x21, [sp,32]
	.cfi_offset 19, -32
	.cfi_offset 20, -24
	.cfi_offset 21, -16
	.loc 1 70 0
	mov	w20, 0
	.loc 1 69 0
	ldrb	w2, [x0,1129]
	.loc 1 67 0
	ldr	x21, [x0,1720]
.LVL20:
	.loc 1 69 0
	cbz	w2, .L12
	.loc 1 69 0 is_stmt 0 discriminator 1
	ldr	w2, [x0,828]
	tbz	x2, 5, .L18
.L12:
	.loc 1 106 0 is_stmt 1
	mov	w0, w20
.LVL21:
	ldr	x21, [sp,32]
	.cfi_remember_state
	.cfi_restore 21
.LVL22:
	ldp	x19, x20, [sp,16]
	.cfi_restore 20
	.cfi_restore 19
.LVL23:
	ldp	x29, x30, [sp], 48
	.cfi_restore 30
	.cfi_restore 29
	.cfi_def_cfa 31, 0
	ret
.LVL24:
.L18:
	.cfi_restore_state
	.loc 1 72 0
	mov	w1, 1
.LVL25:
	mov	w2, -92
	mov	w3, w1
	mov	w4, 0
	mov	w5, 0
	mov	w6, w1
	mov	w7, 0
	mov	x19, x0
	bl	__mmc_switch
.LVL26:
	mov	w2, w0
.LVL27:
	.loc 1 82 0
	cbz	w0, .L13
	.loc 1 83 0
	ldr	x0, [x19]
.LBB20:
.LBB21:
	.loc 2 873 0
	ldr	x1, [x0,88]
	cbz	x1, .L19
.L14:
.LBE21:
.LBE20:
	.loc 1 83 0 discriminator 1
	adrp	x0, .LC1
	.loc 1 89 0
	mov	w20, w2
.LVL28:
	.loc 1 83 0 discriminator 1
	add	x0, x0, :lo12:.LC1
	bl	printk
.LVL29:
	.loc 1 88 0
	ldr	w0, [x21,424]
	add	w0, w0, 1
	str	w0, [x21,424]
	.loc 1 106 0
	mov	w0, w20
	ldp	x19, x20, [sp,16]
	.cfi_remember_state
	.cfi_restore 19
	.cfi_restore 20
.LVL30:
	ldr	x21, [sp,32]
	.cfi_restore 21
.LVL31:
	ldp	x29, x30, [sp], 48
	.cfi_restore 29
	.cfi_restore 30
	.cfi_def_cfa 31, 0
	ret
.LVL32:
.L13:
	.cfi_restore_state
	.loc 1 92 0
	ldr	w1, [x19,828]
	.loc 1 93 0
	adrp	x0, .LC2
.LVL33:
	add	x0, x0, :lo12:.LC2
	.loc 1 92 0
	orr	w1, w1, 32
	str	w1, [x19,828]
	.loc 1 93 0
	bl	printk
.LVL34:
	b	.L12
.LVL35:
.L19:
	ldr	x1, [x0,24]
	b	.L14
	.cfi_endproc
.LFE2787:
	.size	mmc_start_bkops, .-mmc_start_bkops
	.align	2
	.global	mmc_stop_bkops
	.type	mmc_stop_bkops, %function
mmc_stop_bkops:
.LFB2789:
	.loc 1 158 0
	.cfi_startproc
.LVL36:
	stp	x29, x30, [sp, -64]!
	.cfi_def_cfa_offset 64
	.cfi_offset 29, -64
	.cfi_offset 30, -56
	add	x29, sp, 0
	.cfi_def_cfa_register 29
	stp	x19, x20, [sp,16]
	stp	x21, x22, [sp,32]
	stp	x23, x24, [sp,48]
	.cfi_offset 19, -48
	.cfi_offset 20, -40
	.cfi_offset 21, -32
	.cfi_offset 22, -24
	.cfi_offset 23, -16
	.cfi_offset 24, -8
	.loc 1 158 0
	mov	x19, x0
	.loc 1 162 0
	ldr	x20, [x0,1720]
.LVL37:
.LBB28:
.LBB29:
	.file 3 "/mnt/disk/jenkins/ci/workspace/chipset_patch/opensource/component_code/vendor/huawei/extra/build/build_script/kirin_kernel_release/kernel/include/linux/timekeeping.h"
	.loc 3 228 0
	bl	ktime_get
.LVL38:
	mov	x21, x0
.LBE29:
.LBE28:
	.loc 1 170 0
	ldrb	w0, [x19,1129]
	cbz	w0, .L21
	.loc 1 170 0 is_stmt 0 discriminator 1
	ldr	w0, [x19,828]
	tbnz	x0, 5, .L44
.LVL39:
.L21:
	.loc 1 210 0 is_stmt 1
	mov	w0, 0
	ldp	x19, x20, [sp,16]
	.cfi_remember_state
	.cfi_restore 20
	.cfi_restore 19
.LVL40:
	ldp	x21, x22, [sp,32]
	.cfi_restore 22
	.cfi_restore 21
.LVL41:
	ldp	x23, x24, [sp,48]
	.cfi_restore 24
	.cfi_restore 23
.LVL42:
	ldp	x29, x30, [sp], 64
	.cfi_restore 30
	.cfi_restore 29
	.cfi_def_cfa 31, 0
	ret
.LVL43:
.L44:
	.cfi_restore_state
.LBB30:
.LBB31:
	.loc 1 112 0
	ldr	x24, [x19,1720]
.LVL44:
	.loc 1 111 0
	mov	w22, 4
.LVL45:
	.loc 1 116 0
	ldr	x23, [x19]
.LVL46:
.L23:
	.loc 1 127 0
	mov	x0, x19
.LVL47:
	bl	mmc_interrupt_hpi
.LVL48:
	.loc 1 128 0
	cmn	w0, #22
	beq	.L22
	cbz	w0, .L22
	.loc 1 130 0
	sub	w22, w22, #1
	cmn	w22, #1
	bne	.L23
.L24:
	.loc 1 135 0
	adrp	x22, .LANCHOR0
.LVL49:
	adrp	x0, .LC3
.LVL50:
	add	x1, x22, :lo12:.LANCHOR0
	add	x0, x0, :lo12:.LC3
	mov	w2, 135
	bl	printk
.LVL51:
	.loc 1 140 0
	ldr	w0, [x24,428]
	add	w0, w0, 1
	str	w0, [x24,428]
	.loc 1 141 0
	ldr	x0, [x23,1672]
	ldr	x1, [x0,104]
	cbz	x1, .L28
	.loc 1 141 0 is_stmt 0 discriminator 1
	mov	x0, x23
	blr	x1
.LVL52:
	cbnz	w0, .L28
.LVL53:
.L26:
.LBE31:
.LBE30:
	.loc 1 188 0 is_stmt 1
	add	x20, x20, 376
.LVL54:
	ldr	w1, [x20,8]
	.loc 1 190 0
	mov	x0, x20
.LVL55:
	.loc 1 188 0
	add	w1, w1, 1
	str	w1, [x20,8]
	.loc 1 189 0
	ldr	w1, [x19,828]
	and	w1, w1, -33
	str	w1, [x19,828]
	.loc 1 190 0
	bl	hisi_bkops_update_dur
.LVL56:
	.loc 1 199 0
	adrp	x0, .LC5
	add	x0, x0, :lo12:.LC5
	bl	printk
.LVL57:
.LBB33:
.LBB34:
	.loc 3 228 0
	bl	ktime_get
.LVL58:
.LBE34:
.LBE33:
	.loc 1 201 0
	sub	x21, x0, x21
.LVL59:
	.loc 1 202 0
	ldr	x1, [x20,96]
	cmp	x21, x1
	bls	.L30
	.loc 1 203 0
	str	x21, [x20,96]
.L30:
	.loc 1 205 0
	ldr	w1, [x20,8]
	ldr	x2, [x20,104]
	sub	w0, w1, #1
	uxtw	x1, w1
	madd	x21, x0, x2, x21
.LVL60:
	udiv	x21, x21, x1
	.loc 1 204 0
	str	x21, [x20,104]
	.loc 1 209 0
	b	.L21
.LVL61:
.L28:
.LBB35:
.LBB32:
	.loc 1 142 0
	adrp	x0, .LC4
	add	x1, x22, :lo12:.LANCHOR0
	mov	w2, 142
	add	x0, x0, :lo12:.LC4
	bl	printk
.LVL62:
	.loc 1 143 0
	bl	dump_stack
.LVL63:
	b	.L26
.LVL64:
.L22:
	.loc 1 134 0
	cbz	w22, .L24
	.loc 1 134 0 is_stmt 0 discriminator 1
	cmn	w0, #22
	beq	.L26
	cbz	w0, .L26
	b	.L24
.LBE32:
.LBE35:
	.cfi_endproc
.LFE2789:
	.size	mmc_stop_bkops, .-mmc_stop_bkops
	.align	2
	.type	mmc_bkops_start_stop, %function
mmc_bkops_start_stop:
.LFB2790:
	.loc 1 213 0 is_stmt 1
	.cfi_startproc
.LVL65:
	stp	x29, x30, [sp, -32]!
	.cfi_def_cfa_offset 32
	.cfi_offset 29, -32
	.cfi_offset 30, -24
	add	x29, sp, 0
	.cfi_def_cfa_register 29
	stp	x19, x20, [sp,16]
	.cfi_offset 19, -16
	.cfi_offset 20, -8
	.loc 1 213 0
	mov	x19, x0
	mov	w20, w1
	.loc 1 217 0
	cbz	x0, .L50
.L46:
	.loc 1 219 0
	mov	x0, x19
	bl	mmc_get_card
.LVL66:
	.loc 1 220 0
	ldr	x0, [x19]
	ldr	x0, [x0,1240]
	ldr	w0, [x0,828]
	tbnz	x0, 6, .L47
	.loc 1 224 0
	cbz	w20, .L51
	.loc 1 226 0
	cmp	w20, 1
	bne	.L49
	.loc 1 227 0
	mov	x0, x19
	mov	w1, 0
	bl	mmc_start_bkops
.LVL67:
.L47:
	.loc 1 233 0
	mov	x0, x19
	bl	mmc_put_card
.LVL68:
	.loc 1 237 0
	mov	w0, 0
	ldp	x19, x20, [sp,16]
	.cfi_remember_state
	.cfi_restore 20
	.cfi_restore 19
.LVL69:
	ldp	x29, x30, [sp], 32
	.cfi_restore 30
	.cfi_restore 29
	.cfi_def_cfa 31, 0
	ret
.LVL70:
.L51:
	.cfi_restore_state
	.loc 1 225 0
	mov	x0, x19
	bl	mmc_stop_bkops
.LVL71:
	.loc 1 233 0
	mov	x0, x19
	bl	mmc_put_card
.LVL72:
	.loc 1 237 0
	mov	w0, 0
	ldp	x19, x20, [sp,16]
	.cfi_remember_state
	.cfi_restore 19
	.cfi_restore 20
.LVL73:
	ldp	x29, x30, [sp], 32
	.cfi_restore 29
	.cfi_restore 30
	.cfi_def_cfa 31, 0
	ret
.LVL74:
.L50:
	.cfi_restore_state
	.loc 1 218 0
	mov	w0, 35
.LVL75:
	mov	x1, 0
	movk	w0, 0x8000, lsl 16
	mov	x2, 0
	bl	rdr_syserr_process_for_ap
.LVL76:
	b	.L46
.L49:
	.loc 1 229 0
	adrp	x1, .LANCHOR0
	adrp	x0, .LC6
	add	x1, x1, :lo12:.LANCHOR0
	mov	w2, w20
	add	x1, x1, 24
	add	x0, x0, :lo12:.LC6
	bl	printk
.LVL77:
	b	.L47
	.cfi_endproc
.LFE2790:
	.size	mmc_bkops_start_stop, .-mmc_bkops_start_stop
	.align	2
	.global	hisi_mmc_is_bkops_needed
	.type	hisi_mmc_is_bkops_needed, %function
hisi_mmc_is_bkops_needed:
.LFB2791:
	.loc 1 262 0
	.cfi_startproc
.LVL78:
	stp	x29, x30, [sp, -80]!
	.cfi_def_cfa_offset 80
	.cfi_offset 29, -80
	.cfi_offset 30, -72
	mov	x3, x0
	.loc 1 270 0
	mov	x2, 9
	.loc 1 262 0
	add	x29, sp, 0
	.cfi_def_cfa_register 29
	stp	x19, x20, [sp,16]
	str	x21, [sp,32]
	.cfi_offset 19, -64
	.cfi_offset 20, -56
	.cfi_offset 21, -48
	.loc 1 262 0
	adrp	x20, __stack_chk_guard
	.loc 1 270 0
	adrp	x19, .LANCHOR1
	add	x0, x29, 56
.LVL79:
	ldr	w5, [x3,856]
	add	x19, x19, :lo12:.LANCHOR1
	ldr	w4, [x3,860]
	mov	x1, x19
	ldr	w3, [x3,864]
.LVL80:
	rev	w5, w5
	.loc 1 262 0
	ldr	x6, [x20,#:lo12:__stack_chk_guard]
	rev	w4, w4
	rev	w3, w3
	mov	w21, 1
	str	x6, [x29,72]
	.loc 1 266 0 discriminator 5
	str	w5, [x29,56]
	.loc 1 267 0 discriminator 5
	str	w4, [x29,60]
	.loc 1 268 0 discriminator 5
	str	w3, [x29,64]
	.loc 1 270 0
	bl	memcmp
.LVL81:
	.loc 1 271 0
	cbz	w0, .L53
	.loc 1 271 0 is_stmt 0 discriminator 2
	add	x0, x29, 56
	add	x1, x19, 16
	mov	x2, 9
	bl	memcmp
.LVL82:
	.loc 1 270 0 is_stmt 1
	cbz	w0, .L53
	.loc 1 272 0
	add	x0, x29, 56
	add	x1, x19, 32
	mov	x2, 9
	bl	memcmp
.LVL83:
	.loc 1 271 0 discriminator 3
	cmp	w0, wzr
	cset	w21, eq
.L53:
	.loc 1 273 0
	ldr	x2, [x29,72]
	mov	w0, w21
	ldr	x1, [x20,#:lo12:__stack_chk_guard]
	cmp	x2, x1
	bne	.L59
	ldp	x19, x20, [sp,16]
	.cfi_remember_state
	.cfi_restore 20
	.cfi_restore 19
	ldr	x21, [sp,32]
	.cfi_restore 21
	ldp	x29, x30, [sp], 80
	.cfi_restore 30
	.cfi_restore 29
	.cfi_def_cfa 31, 0
	ret
.L59:
	.cfi_restore_state
	bl	__stack_chk_fail
.LVL84:
	.cfi_endproc
.LFE2791:
	.size	hisi_mmc_is_bkops_needed, .-hisi_mmc_is_bkops_needed
	.align	2
	.global	hisi_mmc_manual_bkops_config
	.type	hisi_mmc_manual_bkops_config, %function
hisi_mmc_manual_bkops_config:
.LFB2792:
	.loc 1 275 0
	.cfi_startproc
.LVL85:
	stp	x29, x30, [sp, -48]!
	.cfi_def_cfa_offset 48
	.cfi_offset 29, -48
	.cfi_offset 30, -40
	add	x29, sp, 0
	.cfi_def_cfa_register 29
	stp	x19, x20, [sp,16]
	str	x21, [sp,32]
	.cfi_offset 19, -32
	.cfi_offset 20, -24
	.cfi_offset 21, -16
	.loc 1 275 0
	mov	x21, x0
	.loc 1 277 0
	ldr	x0, [x0,472]
.LVL86:
	ldr	x20, [x0]
.LVL87:
	.loc 1 280 0
	bl	hisi_bkops_alloc
.LVL88:
	mov	x19, x0
.LVL89:
	.loc 1 281 0
	cbz	x0, .L63
	.loc 1 284 0
	adrp	x2, .LANCHOR1
	.loc 1 286 0
	ldr	x1, [x0,152]
	.loc 1 284 0
	add	x2, x2, :lo12:.LANCHOR1
	.loc 1 283 0
	mov	w4, 1
	.loc 1 284 0
	add	x3, x2, 48
	.loc 1 286 0
	orr	x1, x1, 8
	.loc 1 284 0
	str	x3, [x0,8]
	.loc 1 287 0
	mov	x3, 3600
	.loc 1 286 0
	str	x1, [x0,152]
	.loc 1 289 0
	add	x2, x2, 64
	.loc 1 283 0
	str	w4, [x0]
	.loc 1 289 0
	mov	w1, 4
	.loc 1 285 0
	str	x20, [x0,16]
	.loc 1 287 0
	str	x3, [x0,328]
	.loc 1 288 0
	str	x0, [x20,1720]
	.loc 1 289 0
	bl	hisi_bkops_set_status_info
.LVL90:
	cbnz	w0, .L63
	.loc 1 292 0
	ldr	x2, [x20,1416]
	mov	x1, x19
	mov	x0, x21
	bl	hisi_bkops_enable
.LVL91:
	.loc 1 293 0
	ldr	x21, [sp,32]
	.cfi_remember_state
	.cfi_restore 21
.LVL92:
	ldp	x19, x20, [sp,16]
	.cfi_restore 20
	.cfi_restore 19
.LVL93:
	ldp	x29, x30, [sp], 48
	.cfi_restore 30
	.cfi_restore 29
	.cfi_def_cfa 31, 0
	ret
.LVL94:
.L63:
	.cfi_restore_state
	.loc 1 282 0
	mov	w0, -1
	.loc 1 293 0
	ldr	x21, [sp,32]
	.cfi_restore 21
.LVL95:
	ldp	x19, x20, [sp,16]
	.cfi_restore 19
	.cfi_restore 20
.LVL96:
	ldp	x29, x30, [sp], 48
	.cfi_restore 29
	.cfi_restore 30
	.cfi_def_cfa 31, 0
	ret
	.cfi_endproc
.LFE2792:
	.size	hisi_mmc_manual_bkops_config, .-hisi_mmc_manual_bkops_config
	.align	2
	.global	hisi_mmc_enable_hpi_for_micron
	.type	hisi_mmc_enable_hpi_for_micron, %function
hisi_mmc_enable_hpi_for_micron:
.LFB2793:
	.loc 1 296 0
	.cfi_startproc
.LVL97:
	stp	x29, x30, [sp, -32]!
	.cfi_def_cfa_offset 32
	.cfi_offset 29, -32
	.cfi_offset 30, -24
	add	x29, sp, 0
	.cfi_def_cfa_register 29
	.loc 1 296 0
	str	x1, [x29,24]
	.loc 1 297 0
	bl	hisi_mmc_is_bkops_needed
.LVL98:
	uxtb	w0, w0
	cbz	w0, .L64
	.loc 1 298 0
	ldr	x1, [x29,24]
.LVL99:
	strb	wzr, [x1]
.L64:
	.loc 1 299 0
	ldp	x29, x30, [sp], 32
	.cfi_restore 30
	.cfi_restore 29
	.cfi_def_cfa 31, 0
	ret
	.cfi_endproc
.LFE2793:
	.size	hisi_mmc_enable_hpi_for_micron, .-hisi_mmc_enable_hpi_for_micron
	.global	mmc_bkops_ops
	.section	.rodata
	.align	3
.LANCHOR0 = . + 0
	.type	__func__.39584, %object
	.size	__func__.39584, 18
__func__.39584:
	.string	"hisi_mmc_send_hpi"
	.zero	6
	.type	__func__.39601, %object
	.size	__func__.39601, 21
__func__.39601:
	.string	"mmc_bkops_start_stop"
	.data
	.align	3
.LANCHOR1 = . + 0
	.type	micron_mmc_bkops_cid1, %object
	.size	micron_mmc_bkops_cid1, 9
micron_mmc_bkops_cid1:
	.byte	19
	.byte	1
	.byte	78
	.byte	81
	.byte	51
	.byte	74
	.byte	57
	.byte	55
	.byte	86
	.zero	7
	.type	micron_mmc_bkops_cid2, %object
	.size	micron_mmc_bkops_cid2, 9
micron_mmc_bkops_cid2:
	.byte	19
	.byte	1
	.byte	78
	.byte	81
	.byte	51
	.byte	74
	.byte	57
	.byte	54
	.byte	86
	.zero	7
	.type	micron_mmc_bkops_cid3, %object
	.size	micron_mmc_bkops_cid3, 9
micron_mmc_bkops_cid3:
	.byte	19
	.byte	1
	.byte	78
	.byte	81
	.byte	51
	.byte	74
	.byte	57
	.byte	54
	.byte	82
	.zero	7
	.type	mmc_bkops_ops, %object
	.size	mmc_bkops_ops, 16
mmc_bkops_ops:
	.xword	mmc_bkops_start_stop
	.xword	mmc_bkops_status_query
	.type	bkops_status_str_mmc, %object
	.size	bkops_status_str_mmc, 32
bkops_status_str_mmc:
	.xword	.LC7
	.xword	.LC8
	.xword	.LC9
	.xword	.LC10
	.section	.rodata.str1.8,"aMS",%progbits,1
	.align	3
.LC0:
	.string	"\0013%s: Failed to read bkops status: %d\n"
	.zero	1
.LC1:
	.string	"\0013%s: Error %d starting bkops\n"
	.zero	1
.LC2:
	.string	"\0016BKOPS started.\n"
	.zero	6
.LC3:
	.string	"\0013%s %d HPI failed! do hisi_mmc_reset\n"
	.zero	1
.LC4:
	.string	"\0013%s %d hisi_mmc_reset Failed!\n"
.LC5:
	.string	"\0016BKOPS stoped.\n"
	.zero	7
.LC6:
	.string	"\0013%s Invalid start value: %d\n"
	.zero	2
.LC7:
	.string	"bkops none"
	.zero	5
.LC8:
	.string	"bkops non critical"
	.zero	5
.LC9:
	.string	"bkops perf impacted"
	.zero	4
.LC10:
	.string	"bkops critical"
	.text
.Letext0:
	.file 4 "/mnt/disk/jenkins/ci/workspace/chipset_patch/opensource/component_code/vendor/huawei/extra/build/build_script/kirin_kernel_release/kernel/include/uapi/asm-generic/int-ll64.h"
	.file 5 "/mnt/disk/jenkins/ci/workspace/chipset_patch/opensource/component_code/vendor/huawei/extra/build/build_script/kirin_kernel_release/kernel/include/asm-generic/int-ll64.h"
	.file 6 "/mnt/disk/jenkins/ci/workspace/chipset_patch/opensource/component_code/vendor/huawei/extra/build/build_script/kirin_kernel_release/kernel/include/uapi/asm-generic/posix_types.h"
	.file 7 "/mnt/disk/jenkins/ci/workspace/chipset_patch/opensource/component_code/vendor/huawei/extra/build/build_script/kirin_kernel_release/kernel/include/uapi/linux/types.h"
	.file 8 "/mnt/disk/jenkins/ci/workspace/chipset_patch/opensource/component_code/vendor/huawei/extra/build/build_script/kirin_kernel_release/kernel/include/linux/types.h"
	.file 9 "/mnt/disk/jenkins/ci/workspace/chipset_patch/opensource/component_code/vendor/huawei/extra/build/build_script/kirin_kernel_release/kernel/include/linux/capability.h"
	.file 10 "/mnt/disk/jenkins/ci/workspace/chipset_patch/opensource/component_code/vendor/huawei/extra/build/build_script/kirin_kernel_release/kernel/include/linux/export.h"
	.file 11 "/mnt/disk/jenkins/ci/workspace/chipset_patch/opensource/component_code/vendor/huawei/extra/build/build_script/kirin_kernel_release/kernel/include/asm-generic/bug.h"
	.file 12 "/mnt/disk/jenkins/ci/workspace/chipset_patch/opensource/component_code/vendor/huawei/extra/build/build_script/kirin_kernel_release/kernel/include/linux/restart_block.h"
	.file 13 "/mnt/disk/jenkins/ci/workspace/chipset_patch/opensource/component_code/vendor/huawei/extra/build/build_script/kirin_kernel_release/kernel/include/uapi/linux/time.h"
	.file 14 "/mnt/disk/jenkins/ci/workspace/chipset_patch/opensource/component_code/vendor/huawei/extra/build/build_script/kirin_kernel_release/kernel/arch/arm64/include/asm/compat.h"
	.file 15 "/mnt/disk/jenkins/ci/workspace/chipset_patch/opensource/component_code/vendor/huawei/extra/build/build_script/kirin_kernel_release/kernel/arch/arm64/include/asm/thread_info.h"
	.file 16 "/mnt/disk/jenkins/ci/workspace/chipset_patch/opensource/component_code/vendor/huawei/extra/build/build_script/kirin_kernel_release/kernel/arch/arm64/include/uapi/asm/ptrace.h"
	.file 17 "/mnt/disk/jenkins/ci/workspace/chipset_patch/opensource/component_code/vendor/huawei/extra/build/build_script/kirin_kernel_release/kernel/arch/arm64/include/asm/spinlock_types.h"
	.file 18 "/mnt/disk/jenkins/ci/workspace/chipset_patch/opensource/component_code/vendor/huawei/extra/build/build_script/kirin_kernel_release/kernel/include/linux/spinlock_types.h"
	.file 19 "/mnt/disk/jenkins/ci/workspace/chipset_patch/opensource/component_code/vendor/huawei/extra/build/build_script/kirin_kernel_release/kernel/include/linux/rwlock_types.h"
	.file 20 "/mnt/disk/jenkins/ci/workspace/chipset_patch/opensource/component_code/vendor/huawei/extra/build/build_script/kirin_kernel_release/kernel/arch/arm64/include/asm/fpsimd.h"
	.file 21 "/mnt/disk/jenkins/ci/workspace/chipset_patch/opensource/component_code/vendor/huawei/extra/build/build_script/kirin_kernel_release/kernel/include/linux/jump_label.h"
	.file 22 "/mnt/disk/jenkins/ci/workspace/chipset_patch/opensource/component_code/vendor/huawei/extra/build/build_script/kirin_kernel_release/kernel/include/asm-generic/atomic-long.h"
	.file 23 "/mnt/disk/jenkins/ci/workspace/chipset_patch/opensource/component_code/vendor/huawei/extra/build/build_script/kirin_kernel_release/kernel/arch/arm64/include/asm/processor.h"
	.file 24 "/mnt/disk/jenkins/ci/workspace/chipset_patch/opensource/component_code/vendor/huawei/extra/build/build_script/kirin_kernel_release/kernel/include/linux/seqlock.h"
	.file 25 "/mnt/disk/jenkins/ci/workspace/chipset_patch/opensource/component_code/vendor/huawei/extra/build/build_script/kirin_kernel_release/kernel/include/linux/time64.h"
	.file 26 "/mnt/disk/jenkins/ci/workspace/chipset_patch/opensource/component_code/vendor/huawei/extra/build/build_script/kirin_kernel_release/kernel/include/linux/plist.h"
	.file 27 "/mnt/disk/jenkins/ci/workspace/chipset_patch/opensource/component_code/vendor/huawei/extra/build/build_script/kirin_kernel_release/kernel/include/linux/cpumask.h"
	.file 28 "/mnt/disk/jenkins/ci/workspace/chipset_patch/opensource/component_code/vendor/huawei/extra/build/build_script/kirin_kernel_release/kernel/include/linux/wait.h"
	.file 29 "/mnt/disk/jenkins/ci/workspace/chipset_patch/opensource/component_code/vendor/huawei/extra/build/build_script/kirin_kernel_release/kernel/include/linux/completion.h"
	.file 30 "/mnt/disk/jenkins/ci/workspace/chipset_patch/opensource/component_code/vendor/huawei/extra/build/build_script/kirin_kernel_release/kernel/include/linux/ktime.h"
	.file 31 "/mnt/disk/jenkins/ci/workspace/chipset_patch/opensource/component_code/vendor/huawei/extra/build/build_script/kirin_kernel_release/kernel/include/linux/rbtree.h"
	.file 32 "/mnt/disk/jenkins/ci/workspace/chipset_patch/opensource/component_code/vendor/huawei/extra/build/build_script/kirin_kernel_release/kernel/include/linux/nodemask.h"
	.file 33 "/mnt/disk/jenkins/ci/workspace/chipset_patch/opensource/component_code/vendor/huawei/extra/build/build_script/kirin_kernel_release/kernel/include/linux/osq_lock.h"
	.file 34 "/mnt/disk/jenkins/ci/workspace/chipset_patch/opensource/component_code/vendor/huawei/extra/build/build_script/kirin_kernel_release/kernel/include/linux/rwsem.h"
	.file 35 "/mnt/disk/jenkins/ci/workspace/chipset_patch/opensource/component_code/vendor/huawei/extra/build/build_script/kirin_kernel_release/kernel/include/linux/sched.h"
	.file 36 "/mnt/disk/jenkins/ci/workspace/chipset_patch/opensource/component_code/vendor/huawei/extra/build/build_script/kirin_kernel_release/kernel/include/linux/mm_types.h"
	.file 37 "/mnt/disk/jenkins/ci/workspace/chipset_patch/opensource/component_code/vendor/huawei/extra/build/build_script/kirin_kernel_release/kernel/include/linux/lockdep.h"
	.file 38 "/mnt/disk/jenkins/ci/workspace/chipset_patch/opensource/component_code/vendor/huawei/extra/build/build_script/kirin_kernel_release/kernel/include/linux/uprobes.h"
	.file 39 "/mnt/disk/jenkins/ci/workspace/chipset_patch/opensource/component_code/vendor/huawei/extra/build/build_script/kirin_kernel_release/kernel/include/linux/timer.h"
	.file 40 "/mnt/disk/jenkins/ci/workspace/chipset_patch/opensource/component_code/vendor/huawei/extra/build/build_script/kirin_kernel_release/kernel/include/linux/uidgid.h"
	.file 41 "/mnt/disk/jenkins/ci/workspace/chipset_patch/opensource/component_code/vendor/huawei/extra/build/build_script/kirin_kernel_release/kernel/include/linux/workqueue.h"
	.file 42 "/mnt/disk/jenkins/ci/workspace/chipset_patch/opensource/component_code/vendor/huawei/extra/build/build_script/kirin_kernel_release/kernel/arch/arm64/include/asm/pgtable-types.h"
	.file 43 "/mnt/disk/jenkins/ci/workspace/chipset_patch/opensource/component_code/vendor/huawei/extra/build/build_script/kirin_kernel_release/kernel/arch/arm64/include/asm/page.h"
	.file 44 "/mnt/disk/jenkins/ci/workspace/chipset_patch/opensource/component_code/vendor/huawei/extra/build/build_script/kirin_kernel_release/kernel/include/linux/pfn.h"
	.file 45 "/mnt/disk/jenkins/ci/workspace/chipset_patch/opensource/component_code/vendor/huawei/extra/build/build_script/kirin_kernel_release/kernel/include/linux/llist.h"
	.file 46 "/mnt/disk/jenkins/ci/workspace/chipset_patch/opensource/component_code/vendor/huawei/extra/build/build_script/kirin_kernel_release/kernel/include/linux/smp.h"
	.file 47 "/mnt/disk/jenkins/ci/workspace/chipset_patch/opensource/component_code/vendor/huawei/extra/build/build_script/kirin_kernel_release/kernel/arch/arm64/include/asm/smp.h"
	.file 48 "/mnt/disk/jenkins/ci/workspace/chipset_patch/opensource/component_code/vendor/huawei/extra/build/build_script/kirin_kernel_release/kernel/arch/arm64/include/asm/mmu.h"
	.file 49 "/mnt/disk/jenkins/ci/workspace/chipset_patch/opensource/component_code/vendor/huawei/extra/build/build_script/kirin_kernel_release/kernel/include/linux/fs.h"
	.file 50 "/mnt/disk/jenkins/ci/workspace/chipset_patch/opensource/component_code/vendor/huawei/extra/build/build_script/kirin_kernel_release/kernel/include/linux/mm.h"
	.file 51 "/mnt/disk/jenkins/ci/workspace/chipset_patch/opensource/component_code/vendor/huawei/extra/build/build_script/kirin_kernel_release/kernel/include/asm-generic/cputime_jiffies.h"
	.file 52 "/mnt/disk/jenkins/ci/workspace/chipset_patch/opensource/component_code/vendor/huawei/extra/build/build_script/kirin_kernel_release/kernel/include/uapi/asm-generic/signal.h"
	.file 53 "/mnt/disk/jenkins/ci/workspace/chipset_patch/opensource/component_code/vendor/huawei/extra/build/build_script/kirin_kernel_release/kernel/include/uapi/asm-generic/signal-defs.h"
	.file 54 "/mnt/disk/jenkins/ci/workspace/chipset_patch/opensource/component_code/vendor/huawei/extra/build/build_script/kirin_kernel_release/kernel/include/uapi/asm-generic/siginfo.h"
	.file 55 "/mnt/disk/jenkins/ci/workspace/chipset_patch/opensource/component_code/vendor/huawei/extra/build/build_script/kirin_kernel_release/kernel/include/linux/signal.h"
	.file 56 "/mnt/disk/jenkins/ci/workspace/chipset_patch/opensource/component_code/vendor/huawei/extra/build/build_script/kirin_kernel_release/kernel/include/linux/pid.h"
	.file 57 "/mnt/disk/jenkins/ci/workspace/chipset_patch/opensource/component_code/vendor/huawei/extra/build/build_script/kirin_kernel_release/kernel/include/linux/mmzone.h"
	.file 58 "/mnt/disk/jenkins/ci/workspace/chipset_patch/opensource/component_code/vendor/huawei/extra/build/build_script/kirin_kernel_release/kernel/include/linux/mutex.h"
	.file 59 "/mnt/disk/jenkins/ci/workspace/chipset_patch/opensource/component_code/vendor/huawei/extra/build/build_script/kirin_kernel_release/kernel/include/linux/notifier.h"
	.file 60 "/mnt/disk/jenkins/ci/workspace/chipset_patch/opensource/component_code/vendor/huawei/extra/build/build_script/kirin_kernel_release/kernel/include/linux/seccomp.h"
	.file 61 "/mnt/disk/jenkins/ci/workspace/chipset_patch/opensource/component_code/vendor/huawei/extra/build/build_script/kirin_kernel_release/kernel/include/uapi/linux/resource.h"
	.file 62 "/mnt/disk/jenkins/ci/workspace/chipset_patch/opensource/component_code/vendor/huawei/extra/build/build_script/kirin_kernel_release/kernel/include/linux/timerqueue.h"
	.file 63 "/mnt/disk/jenkins/ci/workspace/chipset_patch/opensource/component_code/vendor/huawei/extra/build/build_script/kirin_kernel_release/kernel/include/linux/hrtimer.h"
	.file 64 "/mnt/disk/jenkins/ci/workspace/chipset_patch/opensource/component_code/vendor/huawei/extra/build/build_script/kirin_kernel_release/kernel/include/linux/task_io_accounting.h"
	.file 65 "/mnt/disk/jenkins/ci/workspace/chipset_patch/opensource/component_code/vendor/huawei/extra/build/build_script/kirin_kernel_release/kernel/include/linux/assoc_array.h"
	.file 66 "/mnt/disk/jenkins/ci/workspace/chipset_patch/opensource/component_code/vendor/huawei/extra/build/build_script/kirin_kernel_release/kernel/include/linux/key.h"
	.file 67 "/mnt/disk/jenkins/ci/workspace/chipset_patch/opensource/component_code/vendor/huawei/extra/build/build_script/kirin_kernel_release/kernel/include/linux/cred.h"
	.file 68 "/mnt/disk/jenkins/ci/workspace/chipset_patch/opensource/component_code/vendor/huawei/extra/build/build_script/kirin_kernel_release/kernel/include/linux/idr.h"
	.file 69 "/mnt/disk/jenkins/ci/workspace/chipset_patch/opensource/component_code/vendor/huawei/extra/build/build_script/kirin_kernel_release/kernel/include/linux/percpu-refcount.h"
	.file 70 "/mnt/disk/jenkins/ci/workspace/chipset_patch/opensource/component_code/vendor/huawei/extra/build/build_script/kirin_kernel_release/kernel/include/linux/rcu_sync.h"
	.file 71 "/mnt/disk/jenkins/ci/workspace/chipset_patch/opensource/component_code/vendor/huawei/extra/build/build_script/kirin_kernel_release/kernel/include/linux/percpu-rwsem.h"
	.file 72 "/mnt/disk/jenkins/ci/workspace/chipset_patch/opensource/component_code/vendor/huawei/extra/build/build_script/kirin_kernel_release/kernel/include/linux/bpf-cgroup.h"
	.file 73 "/mnt/disk/jenkins/ci/workspace/chipset_patch/opensource/component_code/vendor/huawei/extra/build/build_script/kirin_kernel_release/kernel/include/linux/cgroup-defs.h"
	.file 74 "/mnt/disk/jenkins/ci/workspace/chipset_patch/opensource/component_code/vendor/huawei/extra/build/build_script/kirin_kernel_release/kernel/include/linux/kernfs.h"
	.file 75 "/mnt/disk/jenkins/ci/workspace/chipset_patch/opensource/component_code/vendor/huawei/extra/build/build_script/kirin_kernel_release/kernel/include/linux/seq_file.h"
	.file 76 "/mnt/disk/jenkins/ci/workspace/chipset_patch/opensource/component_code/vendor/huawei/extra/build/build_script/kirin_kernel_release/kernel/include/linux/bio.h"
	.file 77 "/mnt/disk/jenkins/ci/workspace/chipset_patch/opensource/component_code/vendor/huawei/extra/build/build_script/kirin_kernel_release/kernel/include/linux/blkdev.h"
	.file 78 "/mnt/disk/jenkins/ci/workspace/chipset_patch/opensource/component_code/vendor/huawei/extra/build/build_script/kirin_kernel_release/kernel/include/linux/backing-dev-defs.h"
	.file 79 "/mnt/disk/jenkins/ci/workspace/chipset_patch/opensource/component_code/vendor/huawei/extra/build/build_script/kirin_kernel_release/kernel/include/linux/iocontext.h"
	.file 80 "/mnt/disk/jenkins/ci/workspace/chipset_patch/opensource/component_code/vendor/huawei/extra/build/build_script/kirin_kernel_release/kernel/include/linux/kobject_ns.h"
	.file 81 "/mnt/disk/jenkins/ci/workspace/chipset_patch/opensource/component_code/vendor/huawei/extra/build/build_script/kirin_kernel_release/kernel/include/linux/stat.h"
	.file 82 "/mnt/disk/jenkins/ci/workspace/chipset_patch/opensource/component_code/vendor/huawei/extra/build/build_script/kirin_kernel_release/kernel/include/linux/sysfs.h"
	.file 83 "/mnt/disk/jenkins/ci/workspace/chipset_patch/opensource/component_code/vendor/huawei/extra/build/build_script/kirin_kernel_release/kernel/include/linux/kobject.h"
	.file 84 "/mnt/disk/jenkins/ci/workspace/chipset_patch/opensource/component_code/vendor/huawei/extra/build/build_script/kirin_kernel_release/kernel/include/linux/kref.h"
	.file 85 "/mnt/disk/jenkins/ci/workspace/chipset_patch/opensource/component_code/vendor/huawei/extra/build/build_script/kirin_kernel_release/kernel/include/linux/klist.h"
	.file 86 "/mnt/disk/jenkins/ci/workspace/chipset_patch/opensource/component_code/vendor/huawei/extra/build/build_script/kirin_kernel_release/kernel/include/linux/list_bl.h"
	.file 87 "/mnt/disk/jenkins/ci/workspace/chipset_patch/opensource/component_code/vendor/huawei/extra/build/build_script/kirin_kernel_release/kernel/include/linux/lockref.h"
	.file 88 "/mnt/disk/jenkins/ci/workspace/chipset_patch/opensource/component_code/vendor/huawei/extra/build/build_script/kirin_kernel_release/kernel/include/linux/dcache.h"
	.file 89 "/mnt/disk/jenkins/ci/workspace/chipset_patch/opensource/component_code/vendor/huawei/extra/build/build_script/kirin_kernel_release/kernel/include/linux/path.h"
	.file 90 "/mnt/disk/jenkins/ci/workspace/chipset_patch/opensource/component_code/vendor/huawei/extra/build/build_script/kirin_kernel_release/kernel/include/linux/shrinker.h"
	.file 91 "/mnt/disk/jenkins/ci/workspace/chipset_patch/opensource/component_code/vendor/huawei/extra/build/build_script/kirin_kernel_release/kernel/include/linux/list_lru.h"
	.file 92 "/mnt/disk/jenkins/ci/workspace/chipset_patch/opensource/component_code/vendor/huawei/extra/build/build_script/kirin_kernel_release/kernel/include/linux/radix-tree.h"
	.file 93 "/mnt/disk/jenkins/ci/workspace/chipset_patch/opensource/component_code/vendor/huawei/extra/build/build_script/kirin_kernel_release/kernel/include/linux/semaphore.h"
	.file 94 "/mnt/disk/jenkins/ci/workspace/chipset_patch/opensource/component_code/vendor/huawei/extra/build/build_script/kirin_kernel_release/kernel/include/uapi/linux/fiemap.h"
	.file 95 "/mnt/disk/jenkins/ci/workspace/chipset_patch/opensource/component_code/vendor/huawei/extra/build/build_script/kirin_kernel_release/kernel/include/linux/migrate_mode.h"
	.file 96 "/mnt/disk/jenkins/ci/workspace/chipset_patch/opensource/component_code/vendor/huawei/extra/build/build_script/kirin_kernel_release/kernel/include/linux/bvec.h"
	.file 97 "/mnt/disk/jenkins/ci/workspace/chipset_patch/opensource/component_code/vendor/huawei/extra/build/build_script/kirin_kernel_release/kernel/include/linux/blk_types.h"
	.file 98 "/mnt/disk/jenkins/ci/workspace/chipset_patch/opensource/component_code/vendor/huawei/extra/build/build_script/kirin_kernel_release/kernel/include/linux/delayed_call.h"
	.file 99 "/mnt/disk/jenkins/ci/workspace/chipset_patch/opensource/component_code/vendor/huawei/extra/build/build_script/kirin_kernel_release/kernel/include/linux/percpu_counter.h"
	.file 100 "/mnt/disk/jenkins/ci/workspace/chipset_patch/opensource/component_code/vendor/huawei/extra/build/build_script/kirin_kernel_release/kernel/include/linux/quota.h"
	.file 101 "/mnt/disk/jenkins/ci/workspace/chipset_patch/opensource/component_code/vendor/huawei/extra/build/build_script/kirin_kernel_release/kernel/include/linux/projid.h"
	.file 102 "/mnt/disk/jenkins/ci/workspace/chipset_patch/opensource/component_code/vendor/huawei/extra/build/build_script/kirin_kernel_release/kernel/include/linux/module.h"
	.file 103 "/mnt/disk/jenkins/ci/workspace/chipset_patch/opensource/component_code/vendor/huawei/extra/build/build_script/kirin_kernel_release/kernel/include/linux/genhd.h"
	.file 104 "/mnt/disk/jenkins/ci/workspace/chipset_patch/opensource/component_code/vendor/huawei/extra/build/build_script/kirin_kernel_release/kernel/include/linux/nfs_fs_i.h"
	.file 105 "/mnt/disk/jenkins/ci/workspace/chipset_patch/opensource/component_code/vendor/huawei/extra/build/build_script/kirin_kernel_release/kernel/include/linux/pinctrl/devinfo.h"
	.file 106 "/mnt/disk/jenkins/ci/workspace/chipset_patch/opensource/component_code/vendor/huawei/extra/build/build_script/kirin_kernel_release/kernel/include/linux/pm.h"
	.file 107 "/mnt/disk/jenkins/ci/workspace/chipset_patch/opensource/component_code/vendor/huawei/extra/build/build_script/kirin_kernel_release/kernel/include/linux/pm_wakeup.h"
	.file 108 "/mnt/disk/jenkins/ci/workspace/chipset_patch/opensource/component_code/vendor/huawei/extra/build/build_script/kirin_kernel_release/kernel/arch/arm64/include/asm/device.h"
	.file 109 "/mnt/disk/jenkins/ci/workspace/chipset_patch/opensource/component_code/vendor/huawei/extra/build/build_script/kirin_kernel_release/kernel/include/linux/mod_devicetable.h"
	.file 110 "/mnt/disk/jenkins/ci/workspace/chipset_patch/opensource/component_code/vendor/huawei/extra/build/build_script/kirin_kernel_release/kernel/include/linux/tracepoint-defs.h"
	.file 111 "/mnt/disk/jenkins/ci/workspace/chipset_patch/opensource/component_code/vendor/huawei/extra/build/build_script/kirin_kernel_release/kernel/include/linux/vmstat.h"
	.file 112 "/mnt/disk/jenkins/ci/workspace/chipset_patch/opensource/component_code/vendor/huawei/extra/build/build_script/kirin_kernel_release/kernel/arch/arm64/include/asm/uaccess.h"
	.file 113 "/mnt/disk/jenkins/ci/workspace/chipset_patch/opensource/component_code/vendor/huawei/extra/build/build_script/kirin_kernel_release/kernel/include/linux/flex_proportions.h"
	.file 114 "/mnt/disk/jenkins/ci/workspace/chipset_patch/opensource/component_code/vendor/huawei/extra/build/build_script/kirin_kernel_release/kernel/include/linux/mempool.h"
	.file 115 "/mnt/disk/jenkins/ci/workspace/chipset_patch/opensource/component_code/vendor/huawei/extra/build/build_script/kirin_kernel_release/kernel/include/linux/bsg.h"
	.file 116 "/mnt/disk/jenkins/ci/workspace/chipset_patch/opensource/component_code/vendor/huawei/extra/build/build_script/kirin_kernel_release/kernel/include/linux/wbt.h"
	.file 117 "/mnt/disk/jenkins/ci/workspace/chipset_patch/opensource/component_code/vendor/huawei/extra/build/build_script/kirin_kernel_release/kernel/include/linux/scatterlist.h"
	.file 118 "/mnt/disk/jenkins/ci/workspace/chipset_patch/opensource/component_code/vendor/huawei/extra/build/build_script/kirin_kernel_release/kernel/include/linux/elevator.h"
	.file 119 "/mnt/disk/jenkins/ci/workspace/chipset_patch/opensource/component_code/vendor/huawei/extra/build/build_script/kirin_kernel_release/kernel/include/linux/stddef.h"
	.file 120 "/mnt/disk/jenkins/ci/workspace/chipset_patch/opensource/component_code/vendor/huawei/extra/build/build_script/kirin_kernel_release/kernel/include/linux/interrupt.h"
	.file 121 "/mnt/disk/jenkins/ci/workspace/chipset_patch/opensource/component_code/vendor/huawei/extra/build/build_script/kirin_kernel_release/kernel/include/linux/mmc/core.h"
	.file 122 "/mnt/disk/jenkins/ci/workspace/chipset_patch/opensource/component_code/vendor/huawei/extra/build/build_script/kirin_kernel_release/kernel/include/linux/mmc/host.h"
	.file 123 "/mnt/disk/jenkins/ci/workspace/chipset_patch/opensource/component_code/vendor/huawei/extra/build/build_script/kirin_kernel_release/kernel/include/linux/hisi-bkops-core.h"
	.file 124 "/mnt/disk/jenkins/ci/workspace/chipset_patch/opensource/component_code/vendor/huawei/extra/build/build_script/kirin_kernel_release/kernel/include/linux/mmc/card.h"
	.file 125 "/mnt/disk/jenkins/ci/workspace/chipset_patch/opensource/component_code/vendor/huawei/extra/build/build_script/kirin_kernel_release/kernel/include/linux/leds.h"
	.file 126 "/mnt/disk/jenkins/ci/workspace/chipset_patch/opensource/component_code/vendor/huawei/extra/build/build_script/kirin_kernel_release/kernel/include/linux/wakelock.h"
	.file 127 "/mnt/disk/jenkins/ci/workspace/chipset_patch/opensource/component_code/vendor/huawei/extra/build/build_script/kirin_kernel_release/kernel/include/linux/mmc/pm.h"
	.file 128 "/mnt/disk/jenkins/ci/workspace/chipset_patch/opensource/component_code/vendor/huawei/extra/build/build_script/kirin_kernel_release/kernel/drivers/mmc/core/core.h"
	.file 129 "/mnt/disk/jenkins/ci/workspace/chipset_patch/opensource/component_code/vendor/huawei/extra/build/build_script/kirin_kernel_release/kernel/include/uapi/linux/elf.h"
	.file 130 "/mnt/disk/jenkins/ci/workspace/chipset_patch/opensource/component_code/vendor/huawei/extra/build/build_script/kirin_kernel_release/kernel/include/linux/moduleparam.h"
	.file 131 "/mnt/disk/jenkins/ci/workspace/chipset_patch/opensource/component_code/vendor/huawei/extra/build/build_script/kirin_kernel_release/kernel/include/linux/rbtree_latch.h"
	.file 132 "/mnt/disk/jenkins/ci/workspace/chipset_patch/opensource/component_code/vendor/huawei/extra/build/build_script/kirin_kernel_release/kernel/arch/arm64/include/asm/module.h"
	.file 133 "/mnt/disk/jenkins/ci/workspace/chipset_patch/opensource/component_code/vendor/huawei/extra/build/build_script/kirin_kernel_release/kernel/drivers/hisi/ap/platform/hi6250/mntn_public_interface.h"
	.file 134 "/mnt/disk/jenkins/ci/workspace/chipset_patch/opensource/component_code/vendor/huawei/extra/build/build_script/kirin_kernel_release/kernel/include/linux/hisi/rdr_hisi_platform.h"
	.file 135 "/mnt/disk/jenkins/ci/workspace/chipset_patch/opensource/component_code/vendor/huawei/extra/build/build_script/kirin_kernel_release/kernel/drivers/mmc/core/../card/queue.h"
	.file 136 "/mnt/disk/jenkins/ci/workspace/chipset_patch/opensource/component_code/vendor/huawei/extra/build/build_script/kirin_kernel_release/kernel/include/uapi/linux/swab.h"
	.file 137 "/mnt/disk/jenkins/ci/workspace/chipset_patch/opensource/component_code/vendor/huawei/extra/build/build_script/kirin_kernel_release/kernel/arch/arm64/include/asm/cachetype.h"
	.file 138 "/mnt/disk/jenkins/ci/workspace/chipset_patch/opensource/component_code/vendor/huawei/extra/build/build_script/kirin_kernel_release/kernel/include/linux/printk.h"
	.file 139 "/mnt/disk/jenkins/ci/workspace/chipset_patch/opensource/component_code/vendor/huawei/extra/build/build_script/kirin_kernel_release/kernel/include/linux/kernel.h"
	.file 140 "/mnt/disk/jenkins/ci/workspace/chipset_patch/opensource/component_code/vendor/huawei/extra/build/build_script/kirin_kernel_release/kernel/arch/arm64/include/asm/stack_pointer.h"
	.file 141 "/mnt/disk/jenkins/ci/workspace/chipset_patch/opensource/component_code/vendor/huawei/extra/build/build_script/kirin_kernel_release/kernel/arch/arm64/include/asm/hwcap.h"
	.file 142 "/mnt/disk/jenkins/ci/workspace/chipset_patch/opensource/component_code/vendor/huawei/extra/build/build_script/kirin_kernel_release/kernel/arch/arm64/include/asm/cpufeature.h"
	.file 143 "/mnt/disk/jenkins/ci/workspace/chipset_patch/opensource/component_code/vendor/huawei/extra/build/build_script/kirin_kernel_release/kernel/arch/arm64/include/asm/virt.h"
	.file 144 "/mnt/disk/jenkins/ci/workspace/chipset_patch/opensource/component_code/vendor/huawei/extra/build/build_script/kirin_kernel_release/kernel/arch/arm64/include/asm/arch_timer.h"
	.file 145 "/mnt/disk/jenkins/ci/workspace/chipset_patch/opensource/component_code/vendor/huawei/extra/build/build_script/kirin_kernel_release/kernel/include/linux/jiffies.h"
	.file 146 "/mnt/disk/jenkins/ci/workspace/chipset_patch/opensource/component_code/vendor/huawei/extra/build/build_script/kirin_kernel_release/kernel/include/linux/highuid.h"
	.file 147 "/mnt/disk/jenkins/ci/workspace/chipset_patch/opensource/component_code/vendor/huawei/extra/build/build_script/kirin_kernel_release/kernel/arch/arm64/include/asm/memory.h"
	.file 148 "/mnt/disk/jenkins/ci/workspace/chipset_patch/opensource/component_code/vendor/huawei/extra/build/build_script/kirin_kernel_release/kernel/include/asm-generic/percpu.h"
	.file 149 "/mnt/disk/jenkins/ci/workspace/chipset_patch/opensource/component_code/vendor/huawei/extra/build/build_script/kirin_kernel_release/kernel/include/linux/slab.h"
	.file 150 "/mnt/disk/jenkins/ci/workspace/chipset_patch/opensource/component_code/vendor/huawei/extra/build/build_script/kirin_kernel_release/kernel/include/linux/debug_locks.h"
	.file 151 "/mnt/disk/jenkins/ci/workspace/chipset_patch/opensource/component_code/vendor/huawei/extra/build/build_script/kirin_kernel_release/kernel/include/asm-generic/pgtable.h"
	.file 152 "/mnt/disk/jenkins/ci/workspace/chipset_patch/opensource/component_code/vendor/huawei/extra/build/build_script/kirin_kernel_release/kernel/arch/arm64/include/asm/irq.h"
	.file 153 "/mnt/disk/jenkins/ci/workspace/chipset_patch/opensource/component_code/vendor/huawei/extra/build/build_script/kirin_kernel_release/kernel/arch/arm64/include/asm/hardirq.h"
	.file 154 "/mnt/disk/jenkins/ci/workspace/chipset_patch/opensource/component_code/vendor/huawei/extra/build/build_script/kirin_kernel_release/kernel/include/linux/hisi/rdr_pub.h"
	.file 155 "/mnt/disk/jenkins/ci/workspace/chipset_patch/opensource/component_code/vendor/huawei/extra/build/build_script/kirin_kernel_release/kernel/drivers/mmc/core/mmc_ops.h"
	.file 156 "/mnt/disk/jenkins/ci/workspace/chipset_patch/opensource/component_code/vendor/huawei/extra/build/build_script/kirin_kernel_release/kernel/arch/arm64/include/asm/string.h"
	.section	.note.GNU-stack,"",%progbits
